target datalayout = "e-m:e-p270:32:32-p271:32:32-p272:64:64-i64:64-i128:128-f80:128-n8:16:32:64-S128"
target triple = "x86_64-pc-linux-gnu"

%struct.Scheduler = type { ptr, ptr, i32, ptr, i32, i32, %union.pthread_mutex_t, i32, i32, %union.pthread_mutex_t, %union.pthread_cond_t, ptr, i32, ptr, i32, ptr, i32, ptr, i32, ptr, i32, i32, i32, %union.pthread_mutex_t, i64 }
%union.pthread_cond_t = type { %struct.__pthread_cond_s }
%struct.__pthread_cond_s = type { %union.__atomic_wide_counter, %union.__atomic_wide_counter, [2 x i32], [2 x i32], i32, i32, [2 x i32] }
%union.__atomic_wide_counter = type { i64 }
%union.pthread_mutex_t = type { %struct.__pthread_mutex_s }
%struct.__pthread_mutex_s = type { i32, i32, i32, i32, i32, i16, i16, %struct.__pthread_internal_list }
%struct.__pthread_internal_list = type { ptr, ptr }
%struct.SchTask = type { ptr, %struct.SchedulerNode, ptr, ptr, i64, i32 }
%struct.SchedulerNode = type { i32, i32, i32 }
%struct.SchMux = type { ptr, ptr, i32, i32, ptr, %struct.SchTask, i32, ptr, i32, ptr }

@.str = private unnamed_addr constant [30 x i8] c"Assertion %s failed at %s:%d\0A\00", align 1
@.str.1 = private unnamed_addr constant [22 x i8] c"mux_idx < sch->nb_mux\00", align 1
@.str.2 = private unnamed_addr constant [23 x i8] c"fftools/ffmpeg_sched.c\00", align 1
@.str.22 = private unnamed_addr constant [29 x i8] c"stream_idx < mux->nb_streams\00", align 1
@.str.23 = private unnamed_addr constant [40 x i8] c"mux->nb_streams_ready < mux->nb_streams\00", align 1

; Function Attrs: nounwind uwtable
define i32 @sch_mux_stream_ready(ptr noundef %0, i32 noundef %1, i32 noundef %2) #0 {
  %4 = alloca ptr, align 8
  %5 = alloca i32, align 4
  %6 = alloca i32, align 4
  %7 = alloca ptr, align 8
  %8 = alloca i32, align 4
  store ptr %0, ptr %4, align 8, !tbaa !10
  store i32 %1, ptr %5, align 4, !tbaa !12
  store i32 %2, ptr %6, align 4, !tbaa !12
  call void @llvm.lifetime.start.p0(i64 8, ptr %7) #9
  call void @llvm.lifetime.start.p0(i64 4, ptr %8) #9
  store i32 0, ptr %8, align 4, !tbaa !12
  br label %9

9:                                                ; preds = %3
  %10 = load i32, ptr %5, align 4, !tbaa !12
  %11 = load ptr, ptr %4, align 8, !tbaa !10
  %12 = getelementptr inbounds nuw %struct.Scheduler, ptr %11, i32 0, i32 4
  %13 = load i32, ptr %12, align 8, !tbaa !39
  %14 = icmp ult i32 %10, %13
  br i1 %14, label %16, label %15

15:                                               ; preds = %9
  call void (ptr, i32, ptr, ...) @av_log(ptr noundef null, i32 noundef 0, ptr noundef @.str, ptr noundef @.str.1, ptr noundef @.str.2, i32 noundef 1218)
  call void @abort() #10
  unreachable

16:                                               ; preds = %9
  br label %17

17:                                               ; preds = %16
  br label %18

18:                                               ; preds = %17
  %19 = load ptr, ptr %4, align 8, !tbaa !10
  %20 = getelementptr inbounds nuw %struct.Scheduler, ptr %19, i32 0, i32 3
  %21 = load ptr, ptr %20, align 8, !tbaa !40
  %22 = load i32, ptr %5, align 4, !tbaa !12
  %23 = zext i32 %22 to i64
  %24 = getelementptr inbounds nuw %struct.SchMux, ptr %21, i64 %23
  store ptr %24, ptr %7, align 8, !tbaa !41
  br label %25

25:                                               ; preds = %18
  %26 = load i32, ptr %6, align 4, !tbaa !12
  %27 = load ptr, ptr %7, align 8, !tbaa !41
  %28 = getelementptr inbounds nuw %struct.SchMux, ptr %27, i32 0, i32 2
  %29 = load i32, ptr %28, align 8, !tbaa !42
  %30 = icmp ult i32 %26, %29
  br i1 %30, label %32, label %31

31:                                               ; preds = %25
  call void (ptr, i32, ptr, ...) @av_log(ptr noundef null, i32 noundef 0, ptr noundef @.str, ptr noundef @.str.22, ptr noundef @.str.2, i32 noundef 1221)
  call void @abort() #10
  unreachable

32:                                               ; preds = %25
  br label %33

33:                                               ; preds = %32
  br label %34

34:                                               ; preds = %33
  %35 = load ptr, ptr %4, align 8, !tbaa !10
  %36 = getelementptr inbounds nuw %struct.Scheduler, ptr %35, i32 0, i32 6
  %37 = call i32 @pthread_mutex_lock(ptr noundef %36) #9
  br label %38

38:                                               ; preds = %34
  %39 = load ptr, ptr %7, align 8, !tbaa !41
  %40 = getelementptr inbounds nuw %struct.SchMux, ptr %39, i32 0, i32 3
  %41 = load i32, ptr %40, align 4, !tbaa !159
  %42 = load ptr, ptr %7, align 8, !tbaa !41
  %43 = getelementptr inbounds nuw %struct.SchMux, ptr %42, i32 0, i32 2
  %44 = load i32, ptr %43, align 8, !tbaa !42
  %45 = icmp ult i32 %41, %44
  br i1 %45, label %47, label %46

46:                                               ; preds = %38
  call void (ptr, i32, ptr, ...) @av_log(ptr noundef null, i32 noundef 0, ptr noundef @.str, ptr noundef @.str.23, ptr noundef @.str.2, i32 noundef 1225)
  call void @abort() #10
  unreachable

47:                                               ; preds = %38
  br label %48

48:                                               ; preds = %47
  br label %49

49:                                               ; preds = %48
  %50 = load ptr, ptr %7, align 8, !tbaa !41
  %51 = getelementptr inbounds nuw %struct.SchMux, ptr %50, i32 0, i32 3
  %52 = load i32, ptr %51, align 4, !tbaa !159
  %53 = add i32 %52, 1
  store i32 %53, ptr %51, align 4, !tbaa !159
  %54 = load ptr, ptr %7, align 8, !tbaa !41
  %55 = getelementptr inbounds nuw %struct.SchMux, ptr %54, i32 0, i32 2
  %56 = load i32, ptr %55, align 8, !tbaa !42
  %57 = icmp eq i32 %53, %56
  br i1 %57, label %58, label %67

58:                                               ; preds = %49
  %59 = load ptr, ptr %4, align 8, !tbaa !10
  %60 = getelementptr inbounds nuw %struct.Scheduler, ptr %59, i32 0, i32 21
  %61 = load i32, ptr %60, align 4, !tbaa !82
  %62 = icmp uge i32 %61, 1
  br i1 %62, label %63, label %67

63:                                               ; preds = %58
  %64 = load ptr, ptr %4, align 8, !tbaa !10
  %65 = load ptr, ptr %7, align 8, !tbaa !41
  %66 = call i32 @mux_init(ptr noundef %64, ptr noundef %65)
  store i32 %66, ptr %8, align 4, !tbaa !12
  br label %67

67:                                               ; preds = %63, %58, %49
  %68 = load ptr, ptr %4, align 8, !tbaa !10
  %69 = getelementptr inbounds nuw %struct.Scheduler, ptr %68, i32 0, i32 6
  %70 = call i32 @pthread_mutex_unlock(ptr noundef %69) #9
  %71 = load i32, ptr %8, align 4, !tbaa !12
  call void @llvm.lifetime.end.p0(i64 4, ptr %8) #9
  call void @llvm.lifetime.end.p0(i64 8, ptr %7) #9
  ret i32 %71
}