; Function Attrs: nounwind uwtable
define range(i32 -2147483648, 1) i32 @sch_mux_stream_ready(ptr noundef %0, i32 noundef %1, i32 noundef %2) local_unnamed_addr #0 {
  %4 = getelementptr inbounds nuw i8, ptr %0, i64 32
  %5 = load i32, ptr %4, align 8, !tbaa !20
  %6 = icmp ult i32 %1, %5
  br i1 %6, label %8, label %7

7:                                                ; preds = %3
  tail call void (ptr, i32, ptr, ...) @av_log(ptr noundef null, i32 noundef 0, ptr noundef nonnull @.str, ptr noundef nonnull @.str.1, ptr noundef nonnull @.str.2, i32 noundef 1218) #9
  tail call void @abort() #10
  unreachable

8:                                                ; preds = %3
  %9 = getelementptr inbounds nuw i8, ptr %0, i64 24
  %10 = load ptr, ptr %9, align 8, !tbaa !35
  %11 = zext i32 %1 to i64
  %12 = getelementptr inbounds nuw %struct.SchMux, ptr %10, i64 %11
  %13 = getelementptr inbounds nuw i8, ptr %12, i64 16
  %14 = load i32, ptr %13, align 8, !tbaa !36
  %15 = icmp ult i32 %2, %14
  br i1 %15, label %17, label %16

16:                                               ; preds = %8
  tail call void (ptr, i32, ptr, ...) @av_log(ptr noundef null, i32 noundef 0, ptr noundef nonnull @.str, ptr noundef nonnull @.str.22, ptr noundef nonnull @.str.2, i32 noundef 1221) #9
  tail call void @abort() #10
  unreachable

17:                                               ; preds = %8
  %18 = getelementptr inbounds nuw i8, ptr %0, i64 40
  %19 = tail call i32 @pthread_mutex_lock(ptr noundef nonnull %18) #9
  %20 = getelementptr inbounds nuw i8, ptr %12, i64 20
  %21 = load i32, ptr %20, align 4, !tbaa !136
  %22 = load i32, ptr %13, align 8, !tbaa !36
  %23 = icmp ult i32 %21, %22
  br i1 %23, label %25, label %24

24:                                               ; preds = %17
  tail call void (ptr, i32, ptr, ...) @av_log(ptr noundef null, i32 noundef 0, ptr noundef nonnull @.str, ptr noundef nonnull @.str.23, ptr noundef nonnull @.str.2, i32 noundef 1225) #9
  tail call void @abort() #10
  unreachable

25:                                               ; preds = %17
  %26 = add nuw i32 %21, 1
  store i32 %26, ptr %20, align 4, !tbaa !136
  %27 = icmp eq i32 %26, %22
  br i1 %27, label %28, label %33

28:                                               ; preds = %25
  %29 = getelementptr inbounds nuw i8, ptr %0, i64 252
  %30 = load i32, ptr %29, align 4, !tbaa !67
  %.not = icmp eq i32 %30, 0
  br i1 %.not, label %33, label %31

31:                                               ; preds = %28
  %32 = tail call fastcc i32 @mux_init(ptr noundef nonnull %0, ptr noundef nonnull %12)
  br label %33

33:                                               ; preds = %31, %28, %25
  %.0 = phi i32 [ %32, %31 ], [ 0, %28 ], [ 0, %25 ]
  %34 = tail call i32 @pthread_mutex_unlock(ptr noundef nonnull %18) #9
  ret i32 %.0
}